target datalayout = "e-m:e-p270:32:32-p271:32:32-p272:64:64-i64:64-i128:128-f80:128-n8:16:32:64-S128"
target triple = "x86_64-pc-linux-gnu"

%struct.H5A_attr_iter_op_t = type { i32, %union.anon.1 }
%union.anon.1 = type { ptr }

@.str.3 = private unnamed_addr constant [100 x i8] c"generated/home/dtcxzyw/WorkSpace/Projects/compilers/llvm-opt-benchmark/bench/hdf5/hdf5/src/H5Aint.c\00", align 1
@H5E_ATTR_g = external global i64, align 8
@H5E_BADITER_g = external global i64, align 8
@.str.92 = private unnamed_addr constant [32 x i8] c"error iterating over attributes\00", align 1
@__func__.H5A__iterate_old = private unnamed_addr constant [17 x i8] c"H5A__iterate_old\00", align 1
@__func__.H5A__iterate_common = private unnamed_addr constant [20 x i8] c"H5A__iterate_common\00", align 1

; Function Attrs: nounwind uwtable
define internal i32 @H5A__iterate_common(i64 noundef %0, i32 noundef %1, i32 noundef %2, ptr noundef %3, ptr noundef %4, ptr noundef %5) #0 {
  %7 = alloca i64, align 8
  %8 = alloca i32, align 4
  %9 = alloca i32, align 4
  %10 = alloca ptr, align 8
  %11 = alloca ptr, align 8
  %12 = alloca ptr, align 8
  %13 = alloca i64, align 8
  %14 = alloca i64, align 8
  %15 = alloca i32, align 4
  store i64 %0, ptr %7, align 8
  store i32 %1, ptr %8, align 4
  store i32 %2, ptr %9, align 4
  store ptr %3, ptr %10, align 8
  store ptr %4, ptr %11, align 8
  store ptr %5, ptr %12, align 8
  store i32 0, ptr %15, align 4
  %16 = load ptr, ptr %10, align 8
  %17 = icmp ne ptr %16, null
  br i1 %17, label %18, label %21

18:                                               ; preds = %6
  %19 = load ptr, ptr %10, align 8
  %20 = load i64, ptr %19, align 8
  br label %22

21:                                               ; preds = %6
  br label %22

22:                                               ; preds = %21, %18
  %23 = phi i64 [ %20, %18 ], [ 0, %21 ]
  store i64 %23, ptr %13, align 8
  store i64 %23, ptr %14, align 8
  %24 = load i64, ptr %7, align 8
  %25 = load i32, ptr %8, align 4
  %26 = load i32, ptr %9, align 4
  %27 = load i64, ptr %13, align 8
  %28 = load ptr, ptr %11, align 8
  %29 = load ptr, ptr %12, align 8
  %30 = call i32 @H5O__attr_iterate(i64 noundef %24, i32 noundef %25, i32 noundef %26, i64 noundef %27, ptr noundef %14, ptr noundef %28, ptr noundef %29)
  store i32 %30, ptr %15, align 4
  %31 = icmp slt i32 %30, 0
  br i1 %31, label %32, label %38

32:                                               ; preds = %22
  br label %33

33:                                               ; preds = %32
  %34 = load i64, ptr @H5E_ATTR_g, align 8
  %35 = load i64, ptr @H5E_BADITER_g, align 8
  %36 = call i32 (ptr, ptr, i32, i64, i64, ptr, ...) @H5E_printf_stack(ptr noundef @.str.3, ptr noundef @__func__.H5A__iterate_common, i32 noundef 2548, i64 noundef %34, i64 noundef %35, ptr noundef @.str.92)
  br label %37

37:                                               ; preds = %33
  br label %38

38:                                               ; preds = %37, %22
  %39 = load ptr, ptr %10, align 8
  %40 = icmp ne ptr %39, null
  br i1 %40, label %41, label %44

41:                                               ; preds = %38
  %42 = load i64, ptr %14, align 8
  %43 = load ptr, ptr %10, align 8
  store i64 %42, ptr %43, align 8
  br label %44

44:                                               ; preds = %41, %38
  %45 = load i32, ptr %15, align 4
  ret i32 %45
}

; Function Attrs: nounwind uwtable
define i32 @H5A__iterate_old(i64 noundef %0, ptr noundef %1, ptr noundef %2, ptr noundef %3) #0 {
  %5 = alloca i64, align 8
  %6 = alloca ptr, align 8
  %7 = alloca ptr, align 8
  %8 = alloca ptr, align 8
  %9 = alloca %struct.H5A_attr_iter_op_t, align 8
  %10 = alloca i64, align 8
  %11 = alloca i32, align 4
  store i64 %0, ptr %5, align 8
  store ptr %1, ptr %6, align 8
  store ptr %2, ptr %7, align 8
  store ptr %3, ptr %8, align 8
  store i32 0, ptr %11, align 4
  %12 = getelementptr inbounds %struct.H5A_attr_iter_op_t, ptr %9, i32 0, i32 0
  store i32 0, ptr %12, align 8
  %13 = load ptr, ptr %7, align 8
  %14 = getelementptr inbounds %struct.H5A_attr_iter_op_t, ptr %9, i32 0, i32 1
  store ptr %13, ptr %14, align 8
  %15 = load ptr, ptr %6, align 8
  %16 = icmp ne ptr %15, null
  br i1 %16, label %17, label %20

17:                                               ; preds = %4
  %18 = load ptr, ptr %6, align 8
  %19 = load i32, ptr %18, align 4
  br label %21

20:                                               ; preds = %4
  br label %21

21:                                               ; preds = %20, %17
  %22 = phi i32 [ %19, %17 ], [ 0, %20 ]
  %23 = zext i32 %22 to i64
  store i64 %23, ptr %10, align 8
  %24 = load i64, ptr %5, align 8
  %25 = load ptr, ptr %8, align 8
  %26 = call i32 @H5A__iterate_common(i64 noundef %24, i32 noundef 1, i32 noundef 0, ptr noundef %10, ptr noundef %9, ptr noundef %25)
  store i32 %26, ptr %11, align 4
  %27 = icmp slt i32 %26, 0
  br i1 %27, label %28, label %34

28:                                               ; preds = %21
  br label %29

29:                                               ; preds = %28
  %30 = load i64, ptr @H5E_ATTR_g, align 8
  %31 = load i64, ptr @H5E_BADITER_g, align 8
  %32 = call i32 (ptr, ptr, i32, i64, i64, ptr, ...) @H5E_printf_stack(ptr noundef @.str.3, ptr noundef @__func__.H5A__iterate_old, i32 noundef 2650, i64 noundef %30, i64 noundef %31, ptr noundef @.str.92)
  br label %33

33:                                               ; preds = %29
  br label %34

34:                                               ; preds = %33, %21
  %35 = load ptr, ptr %6, align 8
  %36 = icmp ne ptr %35, null
  br i1 %36, label %37, label %41

37:                                               ; preds = %34
  %38 = load i64, ptr %10, align 8
  %39 = trunc i64 %38 to i32
  %40 = load ptr, ptr %6, align 8
  store i32 %39, ptr %40, align 4
  br label %41

41:                                               ; preds = %37, %34
  %42 = load i32, ptr %11, align 4
  ret i32 %42
}