; Function Attrs: nounwind uwtable
define i32 @H5A__iterate_old(i64 noundef %0, ptr noundef %1, ptr noundef %2, ptr noundef %3) local_unnamed_addr #0 {
  %5 = alloca i64, align 8
  %6 = alloca %struct.H5A_attr_iter_op_t, align 8
  store i32 0, ptr %6, align 8
  %7 = getelementptr inbounds i8, ptr %6, i64 8
  store ptr %2, ptr %7, align 8
  %.not = icmp eq ptr %1, null
  br i1 %.not, label %11, label %8

8:                                                ; preds = %4
  %9 = load i32, ptr %1, align 4
  %10 = zext i32 %9 to i64
  br label %11

11:                                               ; preds = %4, %8
  %12 = phi i64 [ %10, %8 ], [ 0, %4 ]
  call void @llvm.lifetime.start.p0(i64 8, ptr nonnull %5)
  store i64 %12, ptr %5, align 8
  %13 = call i32 @H5O__attr_iterate(i64 noundef %0, i32 noundef 1, i32 noundef 0, i64 noundef %12, ptr noundef nonnull %5, ptr noundef nonnull %6, ptr noundef %3) #13
  %14 = icmp slt i32 %13, 0
  br i1 %14, label %16, label %H5A__iterate_common.exit

H5A__iterate_common.exit:                         ; preds = %11
  %15 = load i64, ptr %5, align 8
  call void @llvm.lifetime.end.p0(i64 8, ptr nonnull %5)
  br label %24

16:                                               ; preds = %11
  %17 = load i64, ptr @H5E_ATTR_g, align 8
  %18 = load i64, ptr @H5E_BADITER_g, align 8
  %19 = call i32 (ptr, ptr, i32, i64, i64, ptr, ...) @H5E_printf_stack(ptr noundef nonnull @.str.3, ptr noundef nonnull @__func__.H5A__iterate_common, i32 noundef 2548, i64 noundef %17, i64 noundef %18, ptr noundef nonnull @.str.92) #13
  %20 = load i64, ptr %5, align 8
  call void @llvm.lifetime.end.p0(i64 8, ptr nonnull %5)
  %21 = load i64, ptr @H5E_ATTR_g, align 8
  %22 = load i64, ptr @H5E_BADITER_g, align 8
  %23 = call i32 (ptr, ptr, i32, i64, i64, ptr, ...) @H5E_printf_stack(ptr noundef nonnull @.str.3, ptr noundef nonnull @__func__.H5A__iterate_old, i32 noundef 2650, i64 noundef %21, i64 noundef %22, ptr noundef nonnull @.str.92) #13
  br label %24

24:                                               ; preds = %H5A__iterate_common.exit, %16
  %25 = phi i64 [ %20, %16 ], [ %15, %H5A__iterate_common.exit ]
  br i1 %.not, label %28, label %26

26:                                               ; preds = %24
  %27 = trunc i64 %25 to i32
  store i32 %27, ptr %1, align 4
  br label %28

28:                                               ; preds = %26, %24
  ret i32 %13
}